; Function Attrs: nounwind sspstrong uwtable
define dso_local void @vhost_net_ack_features(ptr noundef initializes((464, 472)) %net, i64 noundef %features) local_unnamed_addr #0 {
entry:
  %backend_features = getelementptr inbounds nuw i8, ptr %net, i64 472
  %0 = load i64, ptr %backend_features, align 8
  %acked_features = getelementptr inbounds nuw i8, ptr %net, i64 464
  store i64 %0, ptr %acked_features, align 8
  %1 = getelementptr i8, ptr %net, i64 904
  %net.val = load ptr, ptr %1, align 8
  %net.val.val = load ptr, ptr %net.val, align 8
  %net.val.val.val = load i32, ptr %net.val.val, align 8
  switch i32 %net.val.val.val, label %sw.default.i [
    i32 3, label %vhost_net_get_feature_bits.exit
    i32 12, label %sw.bb1.i
    i32 13, label %sw.bb2.i
  ]

sw.bb1.i:                                         ; preds = %entry
  br label %vhost_net_get_feature_bits.exit

sw.bb2.i:                                         ; preds = %entry
  br label %vhost_net_get_feature_bits.exit

sw.default.i:                                     ; preds = %entry
  tail call void (ptr, ...) @error_report(ptr noundef nonnull @.str.13, i32 noundef %net.val.val.val) #11
  br label %vhost_net_get_feature_bits.exit

vhost_net_get_feature_bits.exit:                  ; preds = %entry, %sw.bb1.i, %sw.bb2.i, %sw.default.i
  %feature_bits.0.i = phi ptr [ null, %sw.default.i ], [ @vdpa_feature_bits, %sw.bb2.i ], [ @user_feature_bits, %sw.bb1.i ], [ @kernel_feature_bits, %entry ]
  tail call void @vhost_ack_features(ptr noundef nonnull %net, ptr noundef %feature_bits.0.i, i64 noundef %features) #11
  ret void
}